; Function Attrs: nounwind uwtable
define hidden i32 @psa_driver_wrapper_cipher_update(ptr noundef %0, ptr noundef %1, i64 noundef %2, ptr noundef %3, i64 noundef %4, ptr noundef %5) local_unnamed_addr #1 {
  %7 = load i32, ptr %0, align 8
  %cond = icmp eq i32 %7, 1
  br i1 %cond, label %8, label %11

8:                                                ; preds = %6
  %9 = getelementptr inbounds nuw i8, ptr %0, i64 8
  %10 = tail call i32 @mbedtls_psa_cipher_update(ptr noundef nonnull %9, ptr noundef %1, i64 noundef %2, ptr noundef %3, i64 noundef %4, ptr noundef %5) #5
  br label %11

11:                                               ; preds = %6, %8
  %.0 = phi i32 [ %10, %8 ], [ -135, %6 ]
  ret i32 %.0
}